

Microchip Technology PIC18 LITE Macro Assembler V1.45 build -152302408 
                                                                                               Sat Apr 21 20:17:51 2018

Microchip Technology Omniscient Code Generator v1.45 (Free mode) build 201711160504
     1                           	processor	18F4550
     2                           	fnconf	rparam,??,?,0
     3                           	opt	pw 120
     4                           	opt	lm
     5                           	psect	cinit,global,reloc=2,class=CODE,delta=1
     6                           	psect	cstackCOMRAM,global,class=COMRAM,space=1,delta=1,noexec
     7                           	psect	text0,global,reloc=2,class=CODE,delta=1
     8                           	psect	text1,global,reloc=2,class=CODE,delta=1
     9                           	psect	text2,global,reloc=2,class=CODE,delta=1,group=1
    10                           	psect	text3,global,reloc=2,class=CODE,delta=1,group=1
    11                           	psect	text4,global,reloc=2,class=CODE,delta=1,group=1
    12                           	psect	text5,global,reloc=2,class=CODE,delta=1,group=1
    13                           	psect	text6,global,reloc=2,class=CODE,delta=1
    14                           	psect	text7,global,reloc=2,class=CODE,delta=1
    15                           	psect	text8,global,reloc=2,class=CODE,delta=1
    16                           	psect	text9,global,reloc=2,class=CODE,delta=1
    17                           	psect	text10,global,reloc=2,class=CODE,delta=1
    18                           	psect	intsave_regs,global,class=BIGRAM,space=1,delta=1,noexec
    19                           	psect	rparam,global,class=COMRAM,space=1,delta=1,noexec
    20  0000                     
    21                           ; Version 1.45
    22                           ; Generated 16/11/2017 GMT
    23                           ; 
    24                           ; Copyright © 2017, Microchip Technology Inc. and its subsidiaries ("Microchip")
    25                           ; All rights reserved.
    26                           ; 
    27                           ; This software is developed by Microchip Technology Inc. and its subsidiaries ("Microch
      +                          ip").
    28                           ; 
    29                           ; Redistribution and use in source and binary forms, with or without modification, are
    30                           ; permitted provided that the following conditions are met:
    31                           ; 
    32                           ;     1. Redistributions of source code must retain the above copyright notice, this lis
      +                          t of
    33                           ;        conditions and the following disclaimer.
    34                           ; 
    35                           ;     2. Redistributions in binary form must reproduce the above copyright notice, this 
      +                          list
    36                           ;        of conditions and the following disclaimer in the documentation and/or other
    37                           ;        materials provided with the distribution.
    38                           ; 
    39                           ;     3. Microchip's name may not be used to endorse or promote products derived from th
      +                          is
    40                           ;        software without specific prior written permission.
    41                           ; 
    42                           ; THIS SOFTWARE IS PROVIDED BY MICROCHIP "AS IS" AND ANY EXPRESS OR IMPLIED WARRANTIES,
    43                           ; INCLUDING, BUT NOT LIMITED TO, THE IMPLIED WARRANTIES OF MERCHANTABILITY AND FITNESS F
      +                          OR
    44                           ; PURPOSE ARE DISCLAIMED.  IN NO EVENT SHALL MICROCHIP BE LIABLE FOR ANY DIRECT, INDIREC
      +                          T,
    45                           ; INCIDENTAL, SPECIAL, EXEMPLARY, OR CONSEQUENTIAL DAMAGES (INCLUDING BUT NOT LIMITED TO
    46                           ; PROCUREMENT OF SUBSTITUTE GOODS OR SERVICES; LOSS OF USE, DATA OR PROFITS; OR BUSINESS
    47                           ; INTERRUPTION) HOWSOEVER CAUSED AND ON ANY THEORY OF LIABILITY, WHETHER IN CONTRACT, ST
      +                          RICT
    48                           ; LIABILITY, OR TORT (INCLUDING NEGLIGENCE OR OTHERWISE) ARISING IN ANY WAY OUT OF THE U
      +                          SE OF
    49                           ; THIS SOFTWARE, EVEN IF ADVISED OF THE POSSIBILITY OF SUCH DAMAGE.
    50                           ; 
    51                           ; 
    52                           ; Code-generator required, PIC18F4550 Definitions
    53                           ; 
    54                           ; SFR Addresses
    55  0000                     _PORTA	set	3968
    56  0000                     _TRISD	set	3989
    57  0000                     _PIR1bits	set	3998
    58  0000                     _PIE1bits	set	3997
    59  0000                     _ADCON2bits	set	4032
    60  0000                     _ADCON0bits	set	4034
    61  0000                     _ADCON0	set	4034
    62  0000                     _T0CONbits	set	4053
    63  0000                     _INTCONbits	set	4082
    64  0000                     _PORTAbits	set	3968
    65  0000                     _PORTEbits	set	3972
    66  0000                     _TRISEbits	set	3990
    67  0000                     _TRISAbits	set	3986
    68  0000                     _ADCON1bits	set	4033
    69  0000                     _TMR0L	set	4054
    70  0000                     _TMR0IF	set	32658
    71  0000                     _TMR0ON	set	32431
    72  0000                     _RCIF	set	31989
    73  0000                     _T08BIT	set	32430
    74                           
    75                           ; #config settings
    76  0000                     
    77                           	psect	cinit
    78  007B62                     __pcinit:
    79                           	opt stack 0
    80  007B62                     start_initialization:
    81                           	opt stack 0
    82  007B62                     __initialization:
    83                           	opt stack 0
    84  007B62                     end_of_initialization:
    85                           	opt stack 0
    86  007B62                     __end_of__initialization:
    87                           	opt stack 0
    88  007B62  0100               	movlb	0
    89  007B64  EF21  F03E         	goto	_main	;jump to C main() function
    90                           
    91                           	psect	cstackCOMRAM
    92  000001                     __pcstackCOMRAM:
    93                           	opt stack 0
    94  000001                     ?___ftpack:
    95                           	opt stack 0
    96  000001                     carroGirar@direccion:
    97                           	opt stack 0
    98  000001                     ___ftpack@arg:
    99                           	opt stack 0
   100                           
   101                           ; 3 bytes @ 0x0
   102  000001                     	ds	3
   103  000004                     ___ftpack@exp:
   104                           	opt stack 0
   105                           
   106                           ; 1 bytes @ 0x3
   107  000004                     	ds	1
   108  000005                     ___ftpack@sign:
   109                           	opt stack 0
   110                           
   111                           ; 1 bytes @ 0x4
   112  000005                     	ds	1
   113  000006                     ??___ftpack:
   114                           
   115                           ; 1 bytes @ 0x5
   116  000006                     	ds	3
   117  000009                     ?___awtoft:
   118                           	opt stack 0
   119  000009                     ___awtoft@c:
   120                           	opt stack 0
   121                           
   122                           ; 2 bytes @ 0x8
   123  000009                     	ds	3
   124  00000C                     ___awtoft@sign:
   125                           	opt stack 0
   126                           
   127                           ; 1 bytes @ 0xB
   128  00000C                     	ds	1
   129  00000D                     ?___ftdiv:
   130                           	opt stack 0
   131  00000D                     ___ftdiv@f1:
   132                           	opt stack 0
   133                           
   134                           ; 3 bytes @ 0xC
   135  00000D                     	ds	3
   136  000010                     ___ftdiv@f2:
   137                           	opt stack 0
   138                           
   139                           ; 3 bytes @ 0xF
   140  000010                     	ds	3
   141  000013                     ??___ftdiv:
   142                           
   143                           ; 1 bytes @ 0x12
   144  000013                     	ds	3
   145  000016                     ___ftdiv@cntr:
   146                           	opt stack 0
   147                           
   148                           ; 1 bytes @ 0x15
   149  000016                     	ds	1
   150  000017                     ___ftdiv@f3:
   151                           	opt stack 0
   152                           
   153                           ; 3 bytes @ 0x16
   154  000017                     	ds	3
   155  00001A                     ___ftdiv@exp:
   156                           	opt stack 0
   157                           
   158                           ; 1 bytes @ 0x19
   159  00001A                     	ds	1
   160  00001B                     ___ftdiv@sign:
   161                           	opt stack 0
   162                           
   163                           ; 1 bytes @ 0x1A
   164  00001B                     	ds	1
   165  00001C                     ?___fttol:
   166                           	opt stack 0
   167  00001C                     ___fttol@f1:
   168                           	opt stack 0
   169                           
   170                           ; 3 bytes @ 0x1B
   171  00001C                     	ds	4
   172  000020                     ??___fttol:
   173                           
   174                           ; 1 bytes @ 0x1F
   175  000020                     	ds	5
   176  000025                     ___fttol@sign1:
   177                           	opt stack 0
   178                           
   179                           ; 1 bytes @ 0x24
   180  000025                     	ds	1
   181  000026                     ___fttol@lval:
   182                           	opt stack 0
   183                           
   184                           ; 4 bytes @ 0x25
   185  000026                     	ds	4
   186  00002A                     ___fttol@exp1:
   187                           	opt stack 0
   188                           
   189                           ; 1 bytes @ 0x29
   190  00002A                     	ds	1
   191  00002B                     wait_in_ms@time_in_ms:
   192                           	opt stack 0
   193                           
   194                           ; 2 bytes @ 0x2A
   195  00002B                     	ds	2
   196  00002D                     ??_wait_in_ms:
   197                           
   198                           ; 1 bytes @ 0x2C
   199  00002D                     	ds	2
   200  00002F                     wait_in_ms@flag:
   201                           	opt stack 0
   202                           
   203                           ; 2 bytes @ 0x2E
   204  00002F                     	ds	2
   205  000031                     wait_in_ms@count:
   206                           	opt stack 0
   207                           
   208                           ; 2 bytes @ 0x30
   209  000031                     	ds	2
   210  000033                     wait_in_ms@count_ms:
   211                           	opt stack 0
   212                           
   213                           ; 2 bytes @ 0x32
   214  000033                     	ds	2
   215  000035                     
   216                           ; 1 bytes @ 0x34
   217 ;;
   218 ;;Main: autosize = 0, tempsize = 0, incstack = 0, save=0
   219 ;;
   220 ;; *************** function _main *****************
   221 ;; Defined at:
   222 ;;		line 34 in file "carroMain.c"
   223 ;; Parameters:    Size  Location     Type
   224 ;;		None
   225 ;; Auto vars:     Size  Location     Type
   226 ;;		None
   227 ;; Return value:  Size  Location     Type
   228 ;;                  1    wreg      void 
   229 ;; Registers used:
   230 ;;		wreg, status,2, status,0, cstack
   231 ;; Tracked objects:
   232 ;;		On entry : 0/0
   233 ;;		On exit  : 0/0
   234 ;;		Unchanged: 0/0
   235 ;; Data sizes:     COMRAM   BANK0   BANK1   BANK2   BANK3   BANK4   BANK5   BANK6   BANK7
   236 ;;      Params:         0       0       0       0       0       0       0       0       0
   237 ;;      Locals:         0       0       0       0       0       0       0       0       0
   238 ;;      Temps:          0       0       0       0       0       0       0       0       0
   239 ;;      Totals:         0       0       0       0       0       0       0       0       0
   240 ;;Total ram usage:        0 bytes
   241 ;; Hardware stack levels required when called:    3
   242 ;; This function calls:
   243 ;;		_carroAtras
   244 ;;		_carroAvanzar
   245 ;;		_carroGirar
   246 ;;		_carroMatar
   247 ;;		_configBoard
   248 ;;		_wait_in_ms
   249 ;; This function is called by:
   250 ;;		Startup code after reset
   251 ;; This function uses a non-reentrant model
   252 ;;
   253                           
   254                           	psect	text0
   255  007C42                     __ptext0:
   256                           	opt stack 0
   257  007C42                     _main:
   258                           	opt stack 28
   259                           
   260                           ;carroMain.c: 37: ADCON1bits.PCFG = 0b1111;
   261                           
   262                           ;incstack = 0
   263  007C42  80C1               	bsf	4033,0,c	;volatile
   264  007C44  82C1               	bsf	4033,1,c	;volatile
   265  007C46  84C1               	bsf	4033,2,c	;volatile
   266  007C48  86C1               	bsf	4033,3,c	;volatile
   267                           
   268                           ;carroMain.c: 40: TRISAbits.RA0=0;
   269  007C4A  9092               	bcf	3986,0,c	;volatile
   270                           
   271                           ;carroMain.c: 41: TRISAbits.RA1=0;
   272  007C4C  9292               	bcf	3986,1,c	;volatile
   273                           
   274                           ;carroMain.c: 42: TRISEbits.RE0=0;
   275  007C4E  9096               	bcf	3990,0,c	;volatile
   276                           
   277                           ;carroMain.c: 43: TRISEbits.RE1=0;
   278  007C50  9296               	bcf	3990,1,c	;volatile
   279                           
   280                           ;carroMain.c: 45: configBoard();
   281  007C52  ECF1  F03D         	call	_configBoard	;wreg free
   282  007C56                     
   283                           ;carroMain.c: 54: carroAvanzar();
   284  007C56  ECB9  F03D         	call	_carroAvanzar	;wreg free
   285                           
   286                           ;carroMain.c: 56: wait_in_ms(1000);
   287  007C5A  0E03               	movlw	3
   288  007C5C  6E2C               	movwf	wait_in_ms@time_in_ms+1,c
   289  007C5E  0EE8               	movlw	232
   290  007C60  6E2B               	movwf	wait_in_ms@time_in_ms,c
   291  007C62  ECAD  F03E         	call	_wait_in_ms	;wreg free
   292                           
   293                           ;carroMain.c: 58: carroAtras();
   294  007C66  ECB4  F03D         	call	_carroAtras	;wreg free
   295                           
   296                           ;carroMain.c: 59: wait_in_ms(1000);
   297  007C6A  0E03               	movlw	3
   298  007C6C  6E2C               	movwf	wait_in_ms@time_in_ms+1,c
   299  007C6E  0EE8               	movlw	232
   300  007C70  6E2B               	movwf	wait_in_ms@time_in_ms,c
   301  007C72  ECAD  F03E         	call	_wait_in_ms	;wreg free
   302                           
   303                           ;carroMain.c: 61: carroGirar(1);
   304  007C76  0E01               	movlw	1
   305  007C78  ECC3  F03D         	call	_carroGirar
   306                           
   307                           ;carroMain.c: 63: wait_in_ms(1000);
   308  007C7C  0E03               	movlw	3
   309  007C7E  6E2C               	movwf	wait_in_ms@time_in_ms+1,c
   310  007C80  0EE8               	movlw	232
   311  007C82  6E2B               	movwf	wait_in_ms@time_in_ms,c
   312  007C84  ECAD  F03E         	call	_wait_in_ms	;wreg free
   313                           
   314                           ;carroMain.c: 65: carroGirar(2);
   315  007C88  0E02               	movlw	2
   316  007C8A  ECC3  F03D         	call	_carroGirar
   317                           
   318                           ;carroMain.c: 67: wait_in_ms(1000);
   319  007C8E  0E03               	movlw	3
   320  007C90  6E2C               	movwf	wait_in_ms@time_in_ms+1,c
   321  007C92  0EE8               	movlw	232
   322  007C94  6E2B               	movwf	wait_in_ms@time_in_ms,c
   323  007C96  ECAD  F03E         	call	_wait_in_ms	;wreg free
   324                           
   325                           ;carroMain.c: 68: carroMatar();
   326  007C9A  ECBE  F03D         	call	_carroMatar	;wreg free
   327                           
   328                           ;carroMain.c: 69: wait_in_ms(1000);
   329  007C9E  0E03               	movlw	3
   330  007CA0  6E2C               	movwf	wait_in_ms@time_in_ms+1,c
   331  007CA2  0EE8               	movlw	232
   332  007CA4  6E2B               	movwf	wait_in_ms@time_in_ms,c
   333  007CA6  ECAD  F03E         	call	_wait_in_ms	;wreg free
   334  007CAA  D7D5               	goto	l27
   335  007CAC                     __end_of_main:
   336                           	opt stack 0
   337                           
   338 ;; *************** function _wait_in_ms *****************
   339 ;; Defined at:
   340 ;;		line 80 in file "config.c"
   341 ;; Parameters:    Size  Location     Type
   342 ;;  time_in_ms      2   42[COMRAM] int 
   343 ;; Auto vars:     Size  Location     Type
   344 ;;  count_ms        2   50[COMRAM] unsigned int 
   345 ;;  count           2   48[COMRAM] unsigned int 
   346 ;;  flag            2   46[COMRAM] unsigned int 
   347 ;; Return value:  Size  Location     Type
   348 ;;                  1    wreg      void 
   349 ;; Registers used:
   350 ;;		wreg, status,2, status,0, cstack
   351 ;; Tracked objects:
   352 ;;		On entry : 0/0
   353 ;;		On exit  : 0/0
   354 ;;		Unchanged: 0/0
   355 ;; Data sizes:     COMRAM   BANK0   BANK1   BANK2   BANK3   BANK4   BANK5   BANK6   BANK7
   356 ;;      Params:         2       0       0       0       0       0       0       0       0
   357 ;;      Locals:         6       0       0       0       0       0       0       0       0
   358 ;;      Temps:          2       0       0       0       0       0       0       0       0
   359 ;;      Totals:        10       0       0       0       0       0       0       0       0
   360 ;;Total ram usage:       10 bytes
   361 ;; Hardware stack levels used:    1
   362 ;; Hardware stack levels required when called:    2
   363 ;; This function calls:
   364 ;;		___awtoft
   365 ;;		___ftdiv
   366 ;;		___fttol
   367 ;; This function is called by:
   368 ;;		_main
   369 ;; This function uses a non-reentrant model
   370 ;;
   371                           
   372                           	psect	text1
   373  007D5A                     __ptext1:
   374                           	opt stack 0
   375  007D5A                     _wait_in_ms:
   376                           	opt stack 28
   377                           
   378                           ;config.c: 81: unsigned int count = 0;
   379                           
   380                           ;incstack = 0
   381  007D5A  0E00               	movlw	0
   382  007D5C  6E32               	movwf	wait_in_ms@count+1,c
   383  007D5E  0E00               	movlw	0
   384  007D60  6E31               	movwf	wait_in_ms@count,c
   385                           
   386                           ;config.c: 82: unsigned int count_ms = 0;
   387  007D62  0E00               	movlw	0
   388  007D64  6E34               	movwf	wait_in_ms@count_ms+1,c
   389  007D66  0E00               	movlw	0
   390  007D68  6E33               	movwf	wait_in_ms@count_ms,c
   391                           
   392                           ;config.c: 83: unsigned int flag = 0;
   393  007D6A  0E00               	movlw	0
   394  007D6C  6E30               	movwf	wait_in_ms@flag+1,c
   395  007D6E  0E00               	movlw	0
   396  007D70  6E2F               	movwf	wait_in_ms@flag,c
   397                           
   398                           ;config.c: 85: TMR0L = 131;
   399  007D72  0E83               	movlw	131
   400  007D74  6ED6               	movwf	4054,c	;volatile
   401                           
   402                           ;config.c: 88: count_ms = ((8000000)*0.001)/((256-TMR0L)*32);
   403  007D76  50D6               	movf	4054,w,c	;volatile
   404  007D78  6E2D               	movwf	??_wait_in_ms& (0+255),c
   405  007D7A  6A2E               	clrf	(??_wait_in_ms+1)& (0+255),c
   406  007D7C  1E2D               	comf	??_wait_in_ms,f,c
   407  007D7E  1E2E               	comf	??_wait_in_ms+1,f,c
   408  007D80  4A2D               	infsnz	??_wait_in_ms,f,c
   409  007D82  2A2E               	incf	??_wait_in_ms+1,f,c
   410  007D84  0E05               	movlw	5
   411  007D86                     u535:
   412  007D86  90D8               	bcf	status,0,c
   413  007D88  362D               	rlcf	??_wait_in_ms,f,c
   414  007D8A  362E               	rlcf	??_wait_in_ms+1,f,c
   415  007D8C  2EE8               	decfsz	wreg,f,c
   416  007D8E  D7FB               	goto	u535
   417  007D90  0E00               	movlw	0
   418  007D92  242D               	addwf	??_wait_in_ms,w,c
   419  007D94  6E09               	movwf	___awtoft@c,c
   420  007D96  0E20               	movlw	32
   421  007D98  202E               	addwfc	??_wait_in_ms+1,w,c
   422  007D9A  6E0A               	movwf	___awtoft@c+1,c
   423  007D9C  ECD5  F03D         	call	___awtoft	;wreg free
   424  007DA0  C009  F010         	movff	?___awtoft,___ftdiv@f2
   425  007DA4  C00A  F011         	movff	?___awtoft+1,___ftdiv@f2+1
   426  007DA8  C00B  F012         	movff	?___awtoft+2,___ftdiv@f2+2
   427  007DAC  0E00               	movlw	0
   428  007DAE  6E0D               	movwf	___ftdiv@f1,c
   429  007DB0  0EFA               	movlw	250
   430  007DB2  6E0E               	movwf	___ftdiv@f1+1,c
   431  007DB4  0E45               	movlw	69
   432  007DB6  6E0F               	movwf	___ftdiv@f1+2,c
   433  007DB8  EC13  F03F         	call	___ftdiv	;wreg free
   434  007DBC  C00D  F01C         	movff	?___ftdiv,___fttol@f1
   435  007DC0  C00E  F01D         	movff	?___ftdiv+1,___fttol@f1+1
   436  007DC4  C00F  F01E         	movff	?___ftdiv+2,___fttol@f1+2
   437  007DC8  EC86  F03F         	call	___fttol	;wreg free
   438  007DCC  C01C  F033         	movff	?___fttol,wait_in_ms@count_ms
   439  007DD0  C01D  F034         	movff	?___fttol+1,wait_in_ms@count_ms+1
   440                           
   441                           ;config.c: 90: TMR0ON = 1;
   442  007DD4  8ED5               	bsf	4053,7,c	;volatile
   443                           
   444                           ;config.c: 92: while (count < count_ms){
   445  007DD6  D020               	goto	l90
   446  007DD8                     l86:
   447                           
   448                           ;config.c: 93: if(TMR0IF == 1){
   449  007DD8  A4F2               	btfss	intcon,2,c	;volatile
   450  007DDA  D01E               	goto	l90
   451                           
   452                           ;config.c: 94: TMR0IF = 0;
   453  007DDC  94F2               	bcf	intcon,2,c	;volatile
   454                           
   455                           ;config.c: 95: TMR0L = 131;
   456  007DDE  0E83               	movlw	131
   457  007DE0  6ED6               	movwf	4054,c	;volatile
   458                           
   459                           ;config.c: 96: count ++;
   460  007DE2  4A31               	infsnz	wait_in_ms@count,f,c
   461  007DE4  2A32               	incf	wait_in_ms@count+1,f,c
   462                           
   463                           ;config.c: 97: if (count == count_ms){
   464  007DE6  5033               	movf	wait_in_ms@count_ms,w,c
   465  007DE8  1831               	xorwf	wait_in_ms@count,w,c
   466  007DEA  E116               	bnz	l1118
   467  007DEC  5034               	movf	wait_in_ms@count_ms+1,w,c
   468  007DEE  1832               	xorwf	wait_in_ms@count+1,w,c
   469  007DF0  A4D8               	btfss	status,2,c
   470  007DF2  D012               	goto	l90
   471                           
   472                           ;config.c: 98: flag++;
   473  007DF4  4A2F               	infsnz	wait_in_ms@flag,f,c
   474  007DF6  2A30               	incf	wait_in_ms@flag+1,f,c
   475                           
   476                           ;config.c: 99: if (flag != time_in_ms){
   477  007DF8  502F               	movf	wait_in_ms@flag,w,c
   478  007DFA  182B               	xorwf	wait_in_ms@time_in_ms,w,c
   479  007DFC  E104               	bnz	u560
   480  007DFE  5030               	movf	wait_in_ms@flag+1,w,c
   481  007E00  182C               	xorwf	wait_in_ms@time_in_ms+1,w,c
   482  007E02  B4D8               	btfsc	status,2,c
   483  007E04  D005               	goto	l89
   484  007E06                     u560:
   485                           
   486                           ;config.c: 100: count = 0;
   487  007E06  0E00               	movlw	0
   488  007E08  6E32               	movwf	wait_in_ms@count+1,c
   489  007E0A  0E00               	movlw	0
   490  007E0C  6E31               	movwf	wait_in_ms@count,c
   491                           
   492                           ;config.c: 101: }
   493  007E0E  D004               	goto	l90
   494  007E10                     l89:
   495                           
   496                           ;config.c: 102: else{
   497                           ;config.c: 103: count = count_ms;
   498  007E10  C033  F031         	movff	wait_in_ms@count_ms,wait_in_ms@count
   499  007E14  C034  F032         	movff	wait_in_ms@count_ms+1,wait_in_ms@count+1
   500  007E18                     l90:
   501  007E18                     l1118:
   502  007E18  5033               	movf	wait_in_ms@count_ms,w,c
   503  007E1A  5C31               	subwf	wait_in_ms@count,w,c
   504  007E1C  5034               	movf	wait_in_ms@count_ms+1,w,c
   505  007E1E  5832               	subwfb	wait_in_ms@count+1,w,c
   506  007E20  B0D8               	btfsc	status,0,c
   507  007E22  0012               	return	
   508  007E24  D7D9               	goto	l86
   509  007E26                     __end_of_wait_in_ms:
   510                           	opt stack 0
   511                           intcon	equ	0xFF2
   512                           wreg	equ	0xFE8
   513                           status	equ	0xFD8
   514                           
   515 ;; *************** function ___fttol *****************
   516 ;; Defined at:
   517 ;;		line 44 in file "C:\Program Files (x86)\Microchip\xc8\v1.45\sources\common\fttol.c"
   518 ;; Parameters:    Size  Location     Type
   519 ;;  f1              3   27[COMRAM] float 
   520 ;; Auto vars:     Size  Location     Type
   521 ;;  lval            4   37[COMRAM] unsigned long 
   522 ;;  exp1            1   41[COMRAM] unsigned char 
   523 ;;  sign1           1   36[COMRAM] unsigned char 
   524 ;; Return value:  Size  Location     Type
   525 ;;                  4   27[COMRAM] long 
   526 ;; Registers used:
   527 ;;		wreg, status,2, status,0
   528 ;; Tracked objects:
   529 ;;		On entry : 0/0
   530 ;;		On exit  : 0/0
   531 ;;		Unchanged: 0/0
   532 ;; Data sizes:     COMRAM   BANK0   BANK1   BANK2   BANK3   BANK4   BANK5   BANK6   BANK7
   533 ;;      Params:         4       0       0       0       0       0       0       0       0
   534 ;;      Locals:         6       0       0       0       0       0       0       0       0
   535 ;;      Temps:          5       0       0       0       0       0       0       0       0
   536 ;;      Totals:        15       0       0       0       0       0       0       0       0
   537 ;;Total ram usage:       15 bytes
   538 ;; Hardware stack levels used:    1
   539 ;; This function calls:
   540 ;;		Nothing
   541 ;; This function is called by:
   542 ;;		_wait_in_ms
   543 ;; This function uses a non-reentrant model
   544 ;;
   545                           
   546                           	psect	text2
   547  007F0C                     __ptext2:
   548                           	opt stack 0
   549  007F0C                     ___fttol:
   550                           	opt stack 29
   551                           
   552                           ;incstack = 0
   553  007F0C  C01E  F020         	movff	___fttol@f1+2,??___fttol
   554  007F10  6A21               	clrf	(??___fttol+1)& (0+255),c
   555  007F12  6A22               	clrf	(??___fttol+2)& (0+255),c
   556  007F14  341D               	rlcf	___fttol@f1+1,w,c
   557  007F16  3620               	rlcf	??___fttol& (0+255),f,c
   558  007F18  E301               	bnc	u451
   559  007F1A  8021               	bsf	(??___fttol+1)& (0+255),0,c
   560  007F1C                     u451:
   561  007F1C  5020               	movf	??___fttol,w,c
   562  007F1E  6E2A               	movwf	___fttol@exp1,c
   563  007F20  502A               	movf	___fttol@exp1,w,c
   564  007F22  A4D8               	btfss	status,2,c
   565  007F24  D009               	goto	l413
   566  007F26  0E00               	movlw	0
   567  007F28  6E1C               	movwf	?___fttol,c
   568  007F2A  0E00               	movlw	0
   569  007F2C  6E1D               	movwf	?___fttol+1,c
   570  007F2E  0E00               	movlw	0
   571  007F30  6E1E               	movwf	?___fttol+2,c
   572  007F32  0E00               	movlw	0
   573  007F34  6E1F               	movwf	?___fttol+3,c
   574  007F36  0012               	return	
   575  007F38                     l413:
   576  007F38  0E17               	movlw	23
   577  007F3A  6E20               	movwf	??___fttol& (0+255),c
   578  007F3C  C01C  F021         	movff	___fttol@f1,??___fttol+1
   579  007F40  C01D  F022         	movff	___fttol@f1+1,??___fttol+2
   580  007F44  C01E  F023         	movff	___fttol@f1+2,??___fttol+3
   581  007F48  2820               	incf	??___fttol,w,c
   582  007F4A  6E24               	movwf	(??___fttol+4)& (0+255),c
   583  007F4C  D004               	goto	u470
   584  007F4E                     u475:
   585  007F4E  90D8               	bcf	status,0,c
   586  007F50  3223               	rrcf	??___fttol+3,f,c
   587  007F52  3222               	rrcf	??___fttol+2,f,c
   588  007F54  3221               	rrcf	??___fttol+1,f,c
   589  007F56                     u470:
   590  007F56  2E24               	decfsz	(??___fttol+4)& (0+255),f,c
   591  007F58  D7FA               	goto	u475
   592  007F5A  5021               	movf	??___fttol+1,w,c
   593  007F5C  6E25               	movwf	___fttol@sign1,c
   594  007F5E  8E1D               	bsf	___fttol@f1+1,7,c
   595  007F60  0EFF               	movlw	255
   596  007F62  161C               	andwf	___fttol@f1,f,c
   597  007F64  0EFF               	movlw	255
   598  007F66  161D               	andwf	___fttol@f1+1,f,c
   599  007F68  0E00               	movlw	0
   600  007F6A  161E               	andwf	___fttol@f1+2,f,c
   601  007F6C  501C               	movf	___fttol@f1,w,c
   602  007F6E  6E26               	movwf	___fttol@lval,c
   603  007F70  501D               	movf	___fttol@f1+1,w,c
   604  007F72  6E27               	movwf	___fttol@lval+1,c
   605  007F74  501E               	movf	___fttol@f1+2,w,c
   606  007F76  6E28               	movwf	___fttol@lval+2,c
   607  007F78  6A29               	clrf	___fttol@lval+3,c
   608  007F7A  0E8E               	movlw	142
   609  007F7C  5E2A               	subwf	___fttol@exp1,f,c
   610  007F7E  AE2A               	btfss	___fttol@exp1,7,c
   611  007F80  D016               	goto	l415
   612  007F82  502A               	movf	___fttol@exp1,w,c
   613  007F84  0A80               	xorlw	128
   614  007F86  0F8F               	addlw	143
   615  007F88  B0D8               	btfsc	status,0,c
   616  007F8A  D009               	goto	l416
   617  007F8C  0E00               	movlw	0
   618  007F8E  6E1C               	movwf	?___fttol,c
   619  007F90  0E00               	movlw	0
   620  007F92  6E1D               	movwf	?___fttol+1,c
   621  007F94  0E00               	movlw	0
   622  007F96  6E1E               	movwf	?___fttol+2,c
   623  007F98  0E00               	movlw	0
   624  007F9A  6E1F               	movwf	?___fttol+3,c
   625  007F9C  0012               	return	
   626  007F9E                     l416:
   627  007F9E  90D8               	bcf	status,0,c
   628  007FA0  3229               	rrcf	___fttol@lval+3,f,c
   629  007FA2  3228               	rrcf	___fttol@lval+2,f,c
   630  007FA4  3227               	rrcf	___fttol@lval+1,f,c
   631  007FA6  3226               	rrcf	___fttol@lval,f,c
   632  007FA8  3E2A               	incfsz	___fttol@exp1,f,c
   633  007FAA  D7F9               	goto	l416
   634  007FAC  D015               	goto	u510
   635  007FAE                     l415:
   636  007FAE  0E17               	movlw	23
   637  007FB0  642A               	cpfsgt	___fttol@exp1,c
   638  007FB2  D00F               	goto	l421
   639  007FB4  0E00               	movlw	0
   640  007FB6  6E1C               	movwf	?___fttol,c
   641  007FB8  0E00               	movlw	0
   642  007FBA  6E1D               	movwf	?___fttol+1,c
   643  007FBC  0E00               	movlw	0
   644  007FBE  6E1E               	movwf	?___fttol+2,c
   645  007FC0  0E00               	movlw	0
   646  007FC2  6E1F               	movwf	?___fttol+3,c
   647  007FC4  0012               	return	
   648  007FC6  90D8               	bcf	status,0,c
   649  007FC8  3626               	rlcf	___fttol@lval,f,c
   650  007FCA  3627               	rlcf	___fttol@lval+1,f,c
   651  007FCC  3628               	rlcf	___fttol@lval+2,f,c
   652  007FCE  3629               	rlcf	___fttol@lval+3,f,c
   653  007FD0  062A               	decf	___fttol@exp1,f,c
   654  007FD2                     l421:
   655  007FD2  502A               	movf	___fttol@exp1,w,c
   656  007FD4  A4D8               	btfss	status,2,c
   657  007FD6  D7F7               	goto	l422
   658  007FD8                     u510:
   659  007FD8  5025               	movf	___fttol@sign1,w,c
   660  007FDA  B4D8               	btfsc	status,2,c
   661  007FDC  D008               	goto	l424
   662  007FDE  1E29               	comf	___fttol@lval+3,f,c
   663  007FE0  1E28               	comf	___fttol@lval+2,f,c
   664  007FE2  1E27               	comf	___fttol@lval+1,f,c
   665  007FE4  6C26               	negf	___fttol@lval,c
   666  007FE6  0E00               	movlw	0
   667  007FE8  2227               	addwfc	___fttol@lval+1,f,c
   668  007FEA  2228               	addwfc	___fttol@lval+2,f,c
   669  007FEC  2229               	addwfc	___fttol@lval+3,f,c
   670  007FEE                     l424:
   671  007FEE  C026  F01C         	movff	___fttol@lval,?___fttol
   672  007FF2  C027  F01D         	movff	___fttol@lval+1,?___fttol+1
   673  007FF6  C028  F01E         	movff	___fttol@lval+2,?___fttol+2
   674  007FFA  C029  F01F         	movff	___fttol@lval+3,?___fttol+3
   675  007FFE  0012               	return	
   676  008000                     __end_of___fttol:
   677                           	opt stack 0
   678                           intcon	equ	0xFF2
   679                           wreg	equ	0xFE8
   680                           status	equ	0xFD8
   681                           
   682 ;; *************** function ___ftdiv *****************
   683 ;; Defined at:
   684 ;;		line 54 in file "C:\Program Files (x86)\Microchip\xc8\v1.45\sources\common\ftdiv.c"
   685 ;; Parameters:    Size  Location     Type
   686 ;;  f1              3   12[COMRAM] float 
   687 ;;  f2              3   15[COMRAM] float 
   688 ;; Auto vars:     Size  Location     Type
   689 ;;  f3              3   22[COMRAM] float 
   690 ;;  sign            1   26[COMRAM] unsigned char 
   691 ;;  exp             1   25[COMRAM] unsigned char 
   692 ;;  cntr            1   21[COMRAM] unsigned char 
   693 ;; Return value:  Size  Location     Type
   694 ;;                  3   12[COMRAM] float 
   695 ;; Registers used:
   696 ;;		wreg, status,2, status,0, cstack
   697 ;; Tracked objects:
   698 ;;		On entry : 0/0
   699 ;;		On exit  : 0/0
   700 ;;		Unchanged: 0/0
   701 ;; Data sizes:     COMRAM   BANK0   BANK1   BANK2   BANK3   BANK4   BANK5   BANK6   BANK7
   702 ;;      Params:         6       0       0       0       0       0       0       0       0
   703 ;;      Locals:         6       0       0       0       0       0       0       0       0
   704 ;;      Temps:          3       0       0       0       0       0       0       0       0
   705 ;;      Totals:        15       0       0       0       0       0       0       0       0
   706 ;;Total ram usage:       15 bytes
   707 ;; Hardware stack levels used:    1
   708 ;; Hardware stack levels required when called:    1
   709 ;; This function calls:
   710 ;;		___ftpack
   711 ;; This function is called by:
   712 ;;		_wait_in_ms
   713 ;; This function uses a non-reentrant model
   714 ;;
   715                           
   716                           	psect	text3
   717  007E26                     __ptext3:
   718                           	opt stack 0
   719  007E26                     ___ftdiv:
   720                           	opt stack 28
   721                           
   722                           ;incstack = 0
   723  007E26  C00F  F013         	movff	___ftdiv@f1+2,??___ftdiv
   724  007E2A  6A14               	clrf	(??___ftdiv+1)& (0+255),c
   725  007E2C  6A15               	clrf	(??___ftdiv+2)& (0+255),c
   726  007E2E  340E               	rlcf	___ftdiv@f1+1,w,c
   727  007E30  3613               	rlcf	??___ftdiv& (0+255),f,c
   728  007E32  E301               	bnc	u391
   729  007E34  8014               	bsf	(??___ftdiv+1)& (0+255),0,c
   730  007E36                     u391:
   731  007E36  5013               	movf	??___ftdiv,w,c
   732  007E38  6E1A               	movwf	___ftdiv@exp,c
   733  007E3A  501A               	movf	___ftdiv@exp,w,c
   734  007E3C  A4D8               	btfss	status,2,c
   735  007E3E  D007               	goto	l377
   736  007E40  0E00               	movlw	0
   737  007E42  6E0D               	movwf	?___ftdiv,c
   738  007E44  0E00               	movlw	0
   739  007E46  6E0E               	movwf	?___ftdiv+1,c
   740  007E48  0E00               	movlw	0
   741  007E4A  6E0F               	movwf	?___ftdiv+2,c
   742  007E4C  0012               	return	
   743  007E4E                     l377:
   744  007E4E  C012  F013         	movff	___ftdiv@f2+2,??___ftdiv
   745  007E52  6A14               	clrf	(??___ftdiv+1)& (0+255),c
   746  007E54  6A15               	clrf	(??___ftdiv+2)& (0+255),c
   747  007E56  3411               	rlcf	___ftdiv@f2+1,w,c
   748  007E58  3613               	rlcf	??___ftdiv& (0+255),f,c
   749  007E5A  E301               	bnc	u411
   750  007E5C  8014               	bsf	(??___ftdiv+1)& (0+255),0,c
   751  007E5E                     u411:
   752  007E5E  5013               	movf	??___ftdiv,w,c
   753  007E60  6E1B               	movwf	___ftdiv@sign,c
   754  007E62  501B               	movf	___ftdiv@sign,w,c
   755  007E64  A4D8               	btfss	status,2,c
   756  007E66  D007               	goto	l379
   757  007E68  0E00               	movlw	0
   758  007E6A  6E0D               	movwf	?___ftdiv,c
   759  007E6C  0E00               	movlw	0
   760  007E6E  6E0E               	movwf	?___ftdiv+1,c
   761  007E70  0E00               	movlw	0
   762  007E72  6E0F               	movwf	?___ftdiv+2,c
   763  007E74  0012               	return	
   764  007E76                     l379:
   765  007E76  0E00               	movlw	0
   766  007E78  6E17               	movwf	___ftdiv@f3,c
   767  007E7A  0E00               	movlw	0
   768  007E7C  6E18               	movwf	___ftdiv@f3+1,c
   769  007E7E  0E00               	movlw	0
   770  007E80  6E19               	movwf	___ftdiv@f3+2,c
   771  007E82  501B               	movf	___ftdiv@sign,w,c
   772  007E84  0F89               	addlw	137
   773  007E86  5E1A               	subwf	___ftdiv@exp,f,c
   774  007E88  C00F  F01B         	movff	___ftdiv@f1+2,___ftdiv@sign
   775  007E8C  5012               	movf	___ftdiv@f2+2,w,c
   776  007E8E  1A1B               	xorwf	___ftdiv@sign,f,c
   777  007E90  0E80               	movlw	128
   778  007E92  161B               	andwf	___ftdiv@sign,f,c
   779  007E94  8E0E               	bsf	___ftdiv@f1+1,7,c
   780  007E96  0EFF               	movlw	255
   781  007E98  160D               	andwf	___ftdiv@f1,f,c
   782  007E9A  0EFF               	movlw	255
   783  007E9C  160E               	andwf	___ftdiv@f1+1,f,c
   784  007E9E  0E00               	movlw	0
   785  007EA0  160F               	andwf	___ftdiv@f1+2,f,c
   786  007EA2  8E11               	bsf	___ftdiv@f2+1,7,c
   787  007EA4  0EFF               	movlw	255
   788  007EA6  1610               	andwf	___ftdiv@f2,f,c
   789  007EA8  0EFF               	movlw	255
   790  007EAA  1611               	andwf	___ftdiv@f2+1,f,c
   791  007EAC  0E00               	movlw	0
   792  007EAE  1612               	andwf	___ftdiv@f2+2,f,c
   793  007EB0  0E18               	movlw	24
   794  007EB2  6E16               	movwf	___ftdiv@cntr,c
   795  007EB4  90D8               	bcf	status,0,c
   796  007EB6  3617               	rlcf	___ftdiv@f3,f,c
   797  007EB8  3618               	rlcf	___ftdiv@f3+1,f,c
   798  007EBA  3619               	rlcf	___ftdiv@f3+2,f,c
   799  007EBC  5010               	movf	___ftdiv@f2,w,c
   800  007EBE  5C0D               	subwf	___ftdiv@f1,w,c
   801  007EC0  5011               	movf	___ftdiv@f2+1,w,c
   802  007EC2  580E               	subwfb	___ftdiv@f1+1,w,c
   803  007EC4  5012               	movf	___ftdiv@f2+2,w,c
   804  007EC6  580F               	subwfb	___ftdiv@f1+2,w,c
   805  007EC8  A0D8               	btfss	status,0,c
   806  007ECA  D007               	goto	l381
   807  007ECC  5010               	movf	___ftdiv@f2,w,c
   808  007ECE  5E0D               	subwf	___ftdiv@f1,f,c
   809  007ED0  5011               	movf	___ftdiv@f2+1,w,c
   810  007ED2  5A0E               	subwfb	___ftdiv@f1+1,f,c
   811  007ED4  5012               	movf	___ftdiv@f2+2,w,c
   812  007ED6  5A0F               	subwfb	___ftdiv@f1+2,f,c
   813  007ED8  8017               	bsf	___ftdiv@f3,0,c
   814  007EDA                     l381:
   815  007EDA  90D8               	bcf	status,0,c
   816  007EDC  360D               	rlcf	___ftdiv@f1,f,c
   817  007EDE  360E               	rlcf	___ftdiv@f1+1,f,c
   818  007EE0  360F               	rlcf	___ftdiv@f1+2,f,c
   819  007EE2  2E16               	decfsz	___ftdiv@cntr,f,c
   820  007EE4  D7E7               	goto	l380
   821  007EE6  C017  F001         	movff	___ftdiv@f3,___ftpack@arg
   822  007EEA  C018  F002         	movff	___ftdiv@f3+1,___ftpack@arg+1
   823  007EEE  C019  F003         	movff	___ftdiv@f3+2,___ftpack@arg+2
   824  007EF2  C01A  F004         	movff	___ftdiv@exp,___ftpack@exp
   825  007EF6  C01B  F005         	movff	___ftdiv@sign,___ftpack@sign
   826  007EFA  EC56  F03E         	call	___ftpack	;wreg free
   827  007EFE  C001  F00D         	movff	?___ftpack,?___ftdiv
   828  007F02  C002  F00E         	movff	?___ftpack+1,?___ftdiv+1
   829  007F06  C003  F00F         	movff	?___ftpack+2,?___ftdiv+2
   830  007F0A  0012               	return	
   831  007F0C                     __end_of___ftdiv:
   832                           	opt stack 0
   833                           intcon	equ	0xFF2
   834                           wreg	equ	0xFE8
   835                           status	equ	0xFD8
   836                           
   837 ;; *************** function ___awtoft *****************
   838 ;; Defined at:
   839 ;;		line 32 in file "C:\Program Files (x86)\Microchip\xc8\v1.45\sources\common\awtoft.c"
   840 ;; Parameters:    Size  Location     Type
   841 ;;  c               2    8[COMRAM] int 
   842 ;; Auto vars:     Size  Location     Type
   843 ;;  sign            1   11[COMRAM] unsigned char 
   844 ;; Return value:  Size  Location     Type
   845 ;;                  3    8[COMRAM] float 
   846 ;; Registers used:
   847 ;;		wreg, status,2, status,0, cstack
   848 ;; Tracked objects:
   849 ;;		On entry : 0/0
   850 ;;		On exit  : 0/0
   851 ;;		Unchanged: 0/0
   852 ;; Data sizes:     COMRAM   BANK0   BANK1   BANK2   BANK3   BANK4   BANK5   BANK6   BANK7
   853 ;;      Params:         3       0       0       0       0       0       0       0       0
   854 ;;      Locals:         1       0       0       0       0       0       0       0       0
   855 ;;      Temps:          0       0       0       0       0       0       0       0       0
   856 ;;      Totals:         4       0       0       0       0       0       0       0       0
   857 ;;Total ram usage:        4 bytes
   858 ;; Hardware stack levels used:    1
   859 ;; Hardware stack levels required when called:    1
   860 ;; This function calls:
   861 ;;		___ftpack
   862 ;; This function is called by:
   863 ;;		_wait_in_ms
   864 ;; This function uses a non-reentrant model
   865 ;;
   866                           
   867                           	psect	text4
   868  007BAA                     __ptext4:
   869                           	opt stack 0
   870  007BAA                     ___awtoft:
   871                           	opt stack 28
   872                           
   873                           ;incstack = 0
   874  007BAA  0E00               	movlw	0
   875  007BAC  6E0C               	movwf	___awtoft@sign,c
   876  007BAE  AE0A               	btfss	___awtoft@c+1,7,c
   877  007BB0  D006               	goto	l294
   878  007BB2  6C09               	negf	___awtoft@c,c
   879  007BB4  1E0A               	comf	___awtoft@c+1,f,c
   880  007BB6  B0D8               	btfsc	status,0,c
   881  007BB8  2A0A               	incf	___awtoft@c+1,f,c
   882  007BBA  0E01               	movlw	1
   883  007BBC  6E0C               	movwf	___awtoft@sign,c
   884  007BBE                     l294:
   885  007BBE  C009  F001         	movff	___awtoft@c,___ftpack@arg
   886  007BC2  C00A  F002         	movff	___awtoft@c+1,___ftpack@arg+1
   887  007BC6  6A03               	clrf	___ftpack@arg+2,c
   888  007BC8  0E8E               	movlw	142
   889  007BCA  6E04               	movwf	___ftpack@exp,c
   890  007BCC  C00C  F005         	movff	___awtoft@sign,___ftpack@sign
   891  007BD0  EC56  F03E         	call	___ftpack	;wreg free
   892  007BD4  C001  F009         	movff	?___ftpack,?___awtoft
   893  007BD8  C002  F00A         	movff	?___ftpack+1,?___awtoft+1
   894  007BDC  C003  F00B         	movff	?___ftpack+2,?___awtoft+2
   895  007BE0  0012               	return	
   896  007BE2                     __end_of___awtoft:
   897                           	opt stack 0
   898                           intcon	equ	0xFF2
   899                           wreg	equ	0xFE8
   900                           status	equ	0xFD8
   901                           
   902 ;; *************** function ___ftpack *****************
   903 ;; Defined at:
   904 ;;		line 62 in file "C:\Program Files (x86)\Microchip\xc8\v1.45\sources\common\float.c"
   905 ;; Parameters:    Size  Location     Type
   906 ;;  arg             3    0[COMRAM] unsigned um
   907 ;;  exp             1    3[COMRAM] unsigned char 
   908 ;;  sign            1    4[COMRAM] unsigned char 
   909 ;; Auto vars:     Size  Location     Type
   910 ;;		None
   911 ;; Return value:  Size  Location     Type
   912 ;;                  3    0[COMRAM] float 
   913 ;; Registers used:
   914 ;;		wreg, status,2, status,0
   915 ;; Tracked objects:
   916 ;;		On entry : 0/0
   917 ;;		On exit  : 0/0
   918 ;;		Unchanged: 0/0
   919 ;; Data sizes:     COMRAM   BANK0   BANK1   BANK2   BANK3   BANK4   BANK5   BANK6   BANK7
   920 ;;      Params:         5       0       0       0       0       0       0       0       0
   921 ;;      Locals:         0       0       0       0       0       0       0       0       0
   922 ;;      Temps:          3       0       0       0       0       0       0       0       0
   923 ;;      Totals:         8       0       0       0       0       0       0       0       0
   924 ;;Total ram usage:        8 bytes
   925 ;; Hardware stack levels used:    1
   926 ;; This function calls:
   927 ;;		Nothing
   928 ;; This function is called by:
   929 ;;		___awtoft
   930 ;;		___ftdiv
   931 ;; This function uses a non-reentrant model
   932 ;;
   933                           
   934                           	psect	text5
   935  007CAC                     __ptext5:
   936                           	opt stack 0
   937  007CAC                     ___ftpack:
   938                           	opt stack 28
   939                           
   940                           ;incstack = 0
   941  007CAC  5004               	movf	___ftpack@exp,w,c
   942  007CAE  B4D8               	btfsc	status,2,c
   943  007CB0  D005               	goto	u320
   944  007CB2  5001               	movf	___ftpack@arg,w,c
   945  007CB4  1002               	iorwf	___ftpack@arg+1,w,c
   946  007CB6  1003               	iorwf	___ftpack@arg+2,w,c
   947  007CB8  A4D8               	btfss	status,2,c
   948  007CBA  D00C               	goto	l313
   949  007CBC                     u320:
   950  007CBC  0E00               	movlw	0
   951  007CBE  6E01               	movwf	?___ftpack,c
   952  007CC0  0E00               	movlw	0
   953  007CC2  6E02               	movwf	?___ftpack+1,c
   954  007CC4  0E00               	movlw	0
   955  007CC6  6E03               	movwf	?___ftpack+2,c
   956  007CC8  0012               	return	
   957  007CCA  2A04               	incf	___ftpack@exp,f,c
   958  007CCC  90D8               	bcf	status,0,c
   959  007CCE  3203               	rrcf	___ftpack@arg+2,f,c
   960  007CD0  3202               	rrcf	___ftpack@arg+1,f,c
   961  007CD2  3201               	rrcf	___ftpack@arg,f,c
   962  007CD4                     l313:
   963  007CD4  0E00               	movlw	0
   964  007CD6  1401               	andwf	___ftpack@arg,w,c
   965  007CD8  6E06               	movwf	??___ftpack& (0+255),c
   966  007CDA  0E00               	movlw	0
   967  007CDC  1402               	andwf	___ftpack@arg+1,w,c
   968  007CDE  6E07               	movwf	(??___ftpack+1)& (0+255),c
   969  007CE0  0EFE               	movlw	254
   970  007CE2  1403               	andwf	___ftpack@arg+2,w,c
   971  007CE4  6E08               	movwf	(??___ftpack+2)& (0+255),c
   972  007CE6  5006               	movf	??___ftpack,w,c
   973  007CE8  1007               	iorwf	??___ftpack+1,w,c
   974  007CEA  1008               	iorwf	??___ftpack+2,w,c
   975  007CEC  B4D8               	btfsc	status,2,c
   976  007CEE  D00C               	goto	l316
   977  007CF0  D7EC               	goto	l314
   978  007CF2  2A04               	incf	___ftpack@exp,f,c
   979  007CF4  0E01               	movlw	1
   980  007CF6  2601               	addwf	___ftpack@arg,f,c
   981  007CF8  0E00               	movlw	0
   982  007CFA  2202               	addwfc	___ftpack@arg+1,f,c
   983  007CFC  0E00               	movlw	0
   984  007CFE  2203               	addwfc	___ftpack@arg+2,f,c
   985  007D00  90D8               	bcf	status,0,c
   986  007D02  3203               	rrcf	___ftpack@arg+2,f,c
   987  007D04  3202               	rrcf	___ftpack@arg+1,f,c
   988  007D06  3201               	rrcf	___ftpack@arg,f,c
   989  007D08                     l316:
   990  007D08  0E00               	movlw	0
   991  007D0A  1401               	andwf	___ftpack@arg,w,c
   992  007D0C  6E06               	movwf	??___ftpack& (0+255),c
   993  007D0E  0E00               	movlw	0
   994  007D10  1402               	andwf	___ftpack@arg+1,w,c
   995  007D12  6E07               	movwf	(??___ftpack+1)& (0+255),c
   996  007D14  0EFF               	movlw	255
   997  007D16  1403               	andwf	___ftpack@arg+2,w,c
   998  007D18  6E08               	movwf	(??___ftpack+2)& (0+255),c
   999  007D1A  5006               	movf	??___ftpack,w,c
  1000  007D1C  1007               	iorwf	??___ftpack+1,w,c
  1001  007D1E  1008               	iorwf	??___ftpack+2,w,c
  1002  007D20  B4D8               	btfsc	status,2,c
  1003  007D22  D006               	goto	l319
  1004  007D24  D7E6               	goto	l317
  1005  007D26  0604               	decf	___ftpack@exp,f,c
  1006  007D28  90D8               	bcf	status,0,c
  1007  007D2A  3601               	rlcf	___ftpack@arg,f,c
  1008  007D2C  3602               	rlcf	___ftpack@arg+1,f,c
  1009  007D2E  3603               	rlcf	___ftpack@arg+2,f,c
  1010  007D30                     l319:
  1011  007D30  BE02               	btfsc	___ftpack@arg+1,7,c
  1012  007D32  D003               	goto	u360
  1013  007D34  0E02               	movlw	2
  1014  007D36  6004               	cpfslt	___ftpack@exp,c
  1015  007D38  D7F6               	goto	l320
  1016  007D3A                     u360:
  1017  007D3A  A004               	btfss	___ftpack@exp,0,c
  1018  007D3C  9E02               	bcf	___ftpack@arg+1,7,c
  1019  007D3E  90D8               	bcf	status,0,c
  1020  007D40  3204               	rrcf	___ftpack@exp,f,c
  1021  007D42  5004               	movf	___ftpack@exp,w,c
  1022  007D44  1203               	iorwf	___ftpack@arg+2,f,c
  1023  007D46  5005               	movf	___ftpack@sign,w,c
  1024  007D48  A4D8               	btfss	status,2,c
  1025  007D4A  8E03               	bsf	___ftpack@arg+2,7,c
  1026  007D4C  C001  F001         	movff	___ftpack@arg,?___ftpack
  1027  007D50  C002  F002         	movff	___ftpack@arg+1,?___ftpack+1
  1028  007D54  C003  F003         	movff	___ftpack@arg+2,?___ftpack+2
  1029  007D58  0012               	return	
  1030  007D5A                     __end_of___ftpack:
  1031                           	opt stack 0
  1032                           intcon	equ	0xFF2
  1033                           wreg	equ	0xFE8
  1034                           status	equ	0xFD8
  1035                           
  1036 ;; *************** function _configBoard *****************
  1037 ;; Defined at:
  1038 ;;		line 11 in file "config.c"
  1039 ;; Parameters:    Size  Location     Type
  1040 ;;		None
  1041 ;; Auto vars:     Size  Location     Type
  1042 ;;		None
  1043 ;; Return value:  Size  Location     Type
  1044 ;;                  1    wreg      void 
  1045 ;; Registers used:
  1046 ;;		wreg, status,2
  1047 ;; Tracked objects:
  1048 ;;		On entry : 0/0
  1049 ;;		On exit  : 0/0
  1050 ;;		Unchanged: 0/0
  1051 ;; Data sizes:     COMRAM   BANK0   BANK1   BANK2   BANK3   BANK4   BANK5   BANK6   BANK7
  1052 ;;      Params:         0       0       0       0       0       0       0       0       0
  1053 ;;      Locals:         0       0       0       0       0       0       0       0       0
  1054 ;;      Temps:          0       0       0       0       0       0       0       0       0
  1055 ;;      Totals:         0       0       0       0       0       0       0       0       0
  1056 ;;Total ram usage:        0 bytes
  1057 ;; Hardware stack levels used:    1
  1058 ;; This function calls:
  1059 ;;		Nothing
  1060 ;; This function is called by:
  1061 ;;		_main
  1062 ;; This function uses a non-reentrant model
  1063 ;;
  1064                           
  1065                           	psect	text6
  1066  007BE2                     __ptext6:
  1067                           	opt stack 0
  1068  007BE2                     _configBoard:
  1069                           	opt stack 30
  1070                           
  1071                           ;config.c: 15: INTCONbits.GIE = 0;
  1072                           
  1073                           ;incstack = 0
  1074  007BE2  9EF2               	bcf	intcon,7,c	;volatile
  1075                           
  1076                           ;config.c: 16: INTCONbits.PEIE = 0;
  1077  007BE4  9CF2               	bcf	intcon,6,c	;volatile
  1078                           
  1079                           ;config.c: 25: T0CONbits.TMR0ON = 1;
  1080  007BE6  8ED5               	bsf	4053,7,c	;volatile
  1081                           
  1082                           ;config.c: 26: T08BIT = 1;
  1083  007BE8  8CD5               	bsf	4053,6,c	;volatile
  1084                           
  1085                           ;config.c: 27: T0CONbits.T0CS = 0;
  1086  007BEA  9AD5               	bcf	4053,5,c	;volatile
  1087                           
  1088                           ;config.c: 29: T0CONbits.PSA = 0;
  1089  007BEC  96D5               	bcf	4053,3,c	;volatile
  1090                           
  1091                           ;config.c: 30: T0CONbits.T0PS = 100;
  1092  007BEE  50D5               	movf	4053,w,c	;volatile
  1093  007BF0  0BF8               	andlw	-8
  1094  007BF2  0904               	iorlw	4
  1095  007BF4  6ED5               	movwf	4053,c	;volatile
  1096                           
  1097                           ;config.c: 31: INTCONbits.TMR0IF = 0;
  1098  007BF6  94F2               	bcf	intcon,2,c	;volatile
  1099                           
  1100                           ;config.c: 33: ADCON1bits.PCFG = 0b1111;
  1101  007BF8  80C1               	bsf	4033,0,c	;volatile
  1102  007BFA  82C1               	bsf	4033,1,c	;volatile
  1103  007BFC  84C1               	bsf	4033,2,c	;volatile
  1104  007BFE  86C1               	bsf	4033,3,c	;volatile
  1105                           
  1106                           ;config.c: 44: ADCON0 = 0b00000111;
  1107  007C00  0E07               	movlw	7
  1108  007C02  6EC2               	movwf	4034,c	;volatile
  1109                           
  1110                           ;config.c: 47: ADCON0bits.ADON = 0;
  1111  007C04  90C2               	bcf	4034,0,c	;volatile
  1112                           
  1113                           ;config.c: 51: ADCON2bits.ADFM = 1;
  1114  007C06  8EC0               	bsf	4032,7,c	;volatile
  1115                           
  1116                           ;config.c: 52: ADCON2bits.ADCS = 0b110;
  1117  007C08  50C0               	movf	4032,w,c	;volatile
  1118  007C0A  0BF8               	andlw	-8
  1119  007C0C  0906               	iorlw	6
  1120  007C0E  6EC0               	movwf	4032,c	;volatile
  1121                           
  1122                           ;config.c: 53: ADCON2bits.ACQT = 0b101;
  1123  007C10  50C0               	movf	4032,w,c	;volatile
  1124  007C12  0BC7               	andlw	-57
  1125  007C14  0928               	iorlw	40
  1126  007C16  6EC0               	movwf	4032,c	;volatile
  1127                           
  1128                           ;config.c: 55: TRISAbits.RA1=1;
  1129  007C18  8292               	bsf	3986,1,c	;volatile
  1130                           
  1131                           ;config.c: 56: ADCON2bits.ADCS=0b110;
  1132  007C1A  50C0               	movf	4032,w,c	;volatile
  1133  007C1C  0BF8               	andlw	-8
  1134  007C1E  0906               	iorlw	6
  1135  007C20  6EC0               	movwf	4032,c	;volatile
  1136                           
  1137                           ;config.c: 57: ADCON1bits.VCFG1=0;
  1138  007C22  9AC1               	bcf	4033,5,c	;volatile
  1139                           
  1140                           ;config.c: 58: ADCON1bits.VCFG0=0;
  1141  007C24  98C1               	bcf	4033,4,c	;volatile
  1142                           
  1143                           ;config.c: 60: ADCON2bits.ADFM=1;
  1144  007C26  8EC0               	bsf	4032,7,c	;volatile
  1145                           
  1146                           ;config.c: 64: ADCON0bits.ADON=0;
  1147  007C28  90C2               	bcf	4034,0,c	;volatile
  1148                           
  1149                           ;config.c: 66: PIE1bits.ADIE=0;
  1150  007C2A  9C9D               	bcf	3997,6,c	;volatile
  1151                           
  1152                           ;config.c: 67: PIR1bits.ADIF=0;
  1153  007C2C  9C9E               	bcf	3998,6,c	;volatile
  1154                           
  1155                           ;config.c: 69: ADCON2bits.ACQT=0b111;
  1156  007C2E  86C0               	bsf	4032,3,c	;volatile
  1157  007C30  88C0               	bsf	4032,4,c	;volatile
  1158  007C32  8AC0               	bsf	4032,5,c	;volatile
  1159                           
  1160                           ;config.c: 70: ADCON0bits.GO=1;
  1161  007C34  82C2               	bsf	4034,1,c	;volatile
  1162                           
  1163                           ;config.c: 72: RCIF=0;
  1164  007C36  9A9E               	bcf	3998,5,c	;volatile
  1165                           
  1166                           ;config.c: 75: TRISD=0;
  1167  007C38  0E00               	movlw	0
  1168  007C3A  6E95               	movwf	3989,c	;volatile
  1169                           
  1170                           ;config.c: 76: PORTA=0;
  1171  007C3C  0E00               	movlw	0
  1172  007C3E  6E80               	movwf	3968,c	;volatile
  1173  007C40  0012               	return		;funcret
  1174  007C42                     __end_of_configBoard:
  1175                           	opt stack 0
  1176                           intcon	equ	0xFF2
  1177                           wreg	equ	0xFE8
  1178                           status	equ	0xFD8
  1179                           
  1180 ;; *************** function _carroMatar *****************
  1181 ;; Defined at:
  1182 ;;		line 109 in file "carroMain.c"
  1183 ;; Parameters:    Size  Location     Type
  1184 ;;		None
  1185 ;; Auto vars:     Size  Location     Type
  1186 ;;		None
  1187 ;; Return value:  Size  Location     Type
  1188 ;;                  1    wreg      void 
  1189 ;; Registers used:
  1190 ;;		None
  1191 ;; Tracked objects:
  1192 ;;		On entry : 0/0
  1193 ;;		On exit  : 0/0
  1194 ;;		Unchanged: 0/0
  1195 ;; Data sizes:     COMRAM   BANK0   BANK1   BANK2   BANK3   BANK4   BANK5   BANK6   BANK7
  1196 ;;      Params:         0       0       0       0       0       0       0       0       0
  1197 ;;      Locals:         0       0       0       0       0       0       0       0       0
  1198 ;;      Temps:          0       0       0       0       0       0       0       0       0
  1199 ;;      Totals:         0       0       0       0       0       0       0       0       0
  1200 ;;Total ram usage:        0 bytes
  1201 ;; Hardware stack levels used:    1
  1202 ;; This function calls:
  1203 ;;		Nothing
  1204 ;; This function is called by:
  1205 ;;		_main
  1206 ;; This function uses a non-reentrant model
  1207 ;;
  1208                           
  1209                           	psect	text7
  1210  007B7C                     __ptext7:
  1211                           	opt stack 0
  1212  007B7C                     _carroMatar:
  1213                           	opt stack 30
  1214                           
  1215                           ;carroMain.c: 110: PORTAbits.RA0=0;
  1216                           
  1217                           ;incstack = 0
  1218  007B7C  9080               	bcf	3968,0,c	;volatile
  1219                           
  1220                           ;carroMain.c: 111: PORTAbits.RA1=0;
  1221  007B7E  9280               	bcf	3968,1,c	;volatile
  1222                           
  1223                           ;carroMain.c: 112: PORTEbits.RE1 =0;
  1224  007B80  9284               	bcf	3972,1,c	;volatile
  1225                           
  1226                           ;carroMain.c: 113: PORTEbits.RE0=0;
  1227  007B82  9084               	bcf	3972,0,c	;volatile
  1228  007B84  0012               	return		;funcret
  1229  007B86                     __end_of_carroMatar:
  1230                           	opt stack 0
  1231                           intcon	equ	0xFF2
  1232                           wreg	equ	0xFE8
  1233                           status	equ	0xFD8
  1234                           
  1235 ;; *************** function _carroGirar *****************
  1236 ;; Defined at:
  1237 ;;		line 93 in file "carroMain.c"
  1238 ;; Parameters:    Size  Location     Type
  1239 ;;  direccion       1    wreg     unsigned char 
  1240 ;; Auto vars:     Size  Location     Type
  1241 ;;  direccion       1    0[COMRAM] unsigned char 
  1242 ;; Return value:  Size  Location     Type
  1243 ;;                  1    wreg      void 
  1244 ;; Registers used:
  1245 ;;		wreg, status,2, status,0
  1246 ;; Tracked objects:
  1247 ;;		On entry : 0/0
  1248 ;;		On exit  : 0/0
  1249 ;;		Unchanged: 0/0
  1250 ;; Data sizes:     COMRAM   BANK0   BANK1   BANK2   BANK3   BANK4   BANK5   BANK6   BANK7
  1251 ;;      Params:         0       0       0       0       0       0       0       0       0
  1252 ;;      Locals:         1       0       0       0       0       0       0       0       0
  1253 ;;      Temps:          0       0       0       0       0       0       0       0       0
  1254 ;;      Totals:         1       0       0       0       0       0       0       0       0
  1255 ;;Total ram usage:        1 bytes
  1256 ;; Hardware stack levels used:    1
  1257 ;; This function calls:
  1258 ;;		Nothing
  1259 ;; This function is called by:
  1260 ;;		_main
  1261 ;; This function uses a non-reentrant model
  1262 ;;
  1263                           
  1264                           	psect	text8
  1265  007B86                     __ptext8:
  1266                           	opt stack 0
  1267  007B86                     _carroGirar:
  1268                           	opt stack 30
  1269                           
  1270                           ;incstack = 0
  1271                           ;carroGirar@direccion stored from wreg
  1272  007B86  6E01               	movwf	carroGirar@direccion,c
  1273                           
  1274                           ;carroMain.c: 95: if(direccion==1){
  1275  007B88  0401               	decf	carroGirar@direccion,w,c
  1276  007B8A  A4D8               	btfss	status,2,c
  1277  007B8C  D005               	goto	l39
  1278                           
  1279                           ;carroMain.c: 96: PORTAbits.RA0=1;
  1280  007B8E  8080               	bsf	3968,0,c	;volatile
  1281                           
  1282                           ;carroMain.c: 97: PORTAbits.RA1=0;
  1283  007B90  9280               	bcf	3968,1,c	;volatile
  1284                           
  1285                           ;carroMain.c: 98: PORTEbits.RE1 =0;
  1286  007B92  9284               	bcf	3972,1,c	;volatile
  1287                           
  1288                           ;carroMain.c: 99: PORTEbits.RE0=0;
  1289  007B94  9084               	bcf	3972,0,c	;volatile
  1290                           
  1291                           ;carroMain.c: 100: }
  1292  007B96  0012               	return	
  1293  007B98                     l39:
  1294                           
  1295                           ;carroMain.c: 101: else if(direccion==2){
  1296  007B98  0E02               	movlw	2
  1297  007B9A  1801               	xorwf	carroGirar@direccion,w,c
  1298  007B9C  A4D8               	btfss	status,2,c
  1299  007B9E  0012               	return	
  1300                           
  1301                           ;carroMain.c: 102: PORTAbits.RA0=1;
  1302  007BA0  8080               	bsf	3968,0,c	;volatile
  1303                           
  1304                           ;carroMain.c: 103: PORTAbits.RA1=0;
  1305  007BA2  9280               	bcf	3968,1,c	;volatile
  1306                           
  1307                           ;carroMain.c: 104: PORTEbits.RE1 =0;
  1308  007BA4  9284               	bcf	3972,1,c	;volatile
  1309                           
  1310                           ;carroMain.c: 105: PORTEbits.RE0=1;
  1311  007BA6  8084               	bsf	3972,0,c	;volatile
  1312  007BA8  0012               	return	
  1313  007BAA                     __end_of_carroGirar:
  1314                           	opt stack 0
  1315                           intcon	equ	0xFF2
  1316                           wreg	equ	0xFE8
  1317                           status	equ	0xFD8
  1318                           
  1319 ;; *************** function _carroAvanzar *****************
  1320 ;; Defined at:
  1321 ;;		line 76 in file "carroMain.c"
  1322 ;; Parameters:    Size  Location     Type
  1323 ;;		None
  1324 ;; Auto vars:     Size  Location     Type
  1325 ;;		None
  1326 ;; Return value:  Size  Location     Type
  1327 ;;                  1    wreg      void 
  1328 ;; Registers used:
  1329 ;;		None
  1330 ;; Tracked objects:
  1331 ;;		On entry : 0/0
  1332 ;;		On exit  : 0/0
  1333 ;;		Unchanged: 0/0
  1334 ;; Data sizes:     COMRAM   BANK0   BANK1   BANK2   BANK3   BANK4   BANK5   BANK6   BANK7
  1335 ;;      Params:         0       0       0       0       0       0       0       0       0
  1336 ;;      Locals:         0       0       0       0       0       0       0       0       0
  1337 ;;      Temps:          0       0       0       0       0       0       0       0       0
  1338 ;;      Totals:         0       0       0       0       0       0       0       0       0
  1339 ;;Total ram usage:        0 bytes
  1340 ;; Hardware stack levels used:    1
  1341 ;; This function calls:
  1342 ;;		Nothing
  1343 ;; This function is called by:
  1344 ;;		_main
  1345 ;; This function uses a non-reentrant model
  1346 ;;
  1347                           
  1348                           	psect	text9
  1349  007B72                     __ptext9:
  1350                           	opt stack 0
  1351  007B72                     _carroAvanzar:
  1352                           	opt stack 30
  1353                           
  1354                           ;carroMain.c: 77: PORTEbits.RE1=1;
  1355                           
  1356                           ;incstack = 0
  1357  007B72  8284               	bsf	3972,1,c	;volatile
  1358                           
  1359                           ;carroMain.c: 78: PORTEbits.RE0=0;
  1360  007B74  9084               	bcf	3972,0,c	;volatile
  1361                           
  1362                           ;carroMain.c: 79: PORTAbits.RA0=1;
  1363  007B76  8080               	bsf	3968,0,c	;volatile
  1364                           
  1365                           ;carroMain.c: 80: PORTAbits.RA1=0;
  1366  007B78  9280               	bcf	3968,1,c	;volatile
  1367  007B7A  0012               	return		;funcret
  1368  007B7C                     __end_of_carroAvanzar:
  1369                           	opt stack 0
  1370                           intcon	equ	0xFF2
  1371                           wreg	equ	0xFE8
  1372                           status	equ	0xFD8
  1373                           
  1374 ;; *************** function _carroAtras *****************
  1375 ;; Defined at:
  1376 ;;		line 84 in file "carroMain.c"
  1377 ;; Parameters:    Size  Location     Type
  1378 ;;		None
  1379 ;; Auto vars:     Size  Location     Type
  1380 ;;		None
  1381 ;; Return value:  Size  Location     Type
  1382 ;;                  1    wreg      void 
  1383 ;; Registers used:
  1384 ;;		None
  1385 ;; Tracked objects:
  1386 ;;		On entry : 0/0
  1387 ;;		On exit  : 0/0
  1388 ;;		Unchanged: 0/0
  1389 ;; Data sizes:     COMRAM   BANK0   BANK1   BANK2   BANK3   BANK4   BANK5   BANK6   BANK7
  1390 ;;      Params:         0       0       0       0       0       0       0       0       0
  1391 ;;      Locals:         0       0       0       0       0       0       0       0       0
  1392 ;;      Temps:          0       0       0       0       0       0       0       0       0
  1393 ;;      Totals:         0       0       0       0       0       0       0       0       0
  1394 ;;Total ram usage:        0 bytes
  1395 ;; Hardware stack levels used:    1
  1396 ;; This function calls:
  1397 ;;		Nothing
  1398 ;; This function is called by:
  1399 ;;		_main
  1400 ;; This function uses a non-reentrant model
  1401 ;;
  1402                           
  1403                           	psect	text10
  1404  007B68                     __ptext10:
  1405                           	opt stack 0
  1406  007B68                     _carroAtras:
  1407                           	opt stack 30
  1408                           
  1409                           ;carroMain.c: 85: PORTEbits.RE1=0;
  1410                           
  1411                           ;incstack = 0
  1412  007B68  9284               	bcf	3972,1,c	;volatile
  1413                           
  1414                           ;carroMain.c: 86: PORTEbits.RE0=1;
  1415  007B6A  8084               	bsf	3972,0,c	;volatile
  1416                           
  1417                           ;carroMain.c: 87: PORTAbits.RA1=1;
  1418  007B6C  8280               	bsf	3968,1,c	;volatile
  1419                           
  1420                           ;carroMain.c: 88: PORTAbits.RA0=0;
  1421  007B6E  9080               	bcf	3968,0,c	;volatile
  1422  007B70  0012               	return		;funcret
  1423  007B72                     __end_of_carroAtras:
  1424                           	opt stack 0
  1425  0000                     intcon	equ	0xFF2
  1426                           wreg	equ	0xFE8
  1427                           status	equ	0xFD8
  1428                           intcon	equ	0xFF2
  1429                           wreg	equ	0xFE8
  1430                           status	equ	0xFD8
  1431                           
  1432                           	psect	rparam
  1433  0000                     intcon	equ	0xFF2
  1434                           wreg	equ	0xFE8
  1435                           status	equ	0xFD8


Data Sizes:
    Strings     0
    Constant    0
    Data        0
    BSS         0
    Persistent  0
    Stack       0

Auto Spaces:
    Space          Size  Autos    Used
    COMRAM           95     52      52
    BANK0           160      0       0
    BANK1           256      0       0
    BANK2           256      0       0
    BANK3           256      0       0
    BANK4           256      0       0
    BANK5           256      0       0
    BANK6           256      0       0
    BANK7           256      0       0

Pointer List with Targets:

    None.

Critical Paths under _main in COMRAM

    _main->_wait_in_ms
    _wait_in_ms->___fttol
    ___fttol->___ftdiv
    ___ftdiv->___awtoft
    ___awtoft->___ftpack

Critical Paths under _main in BANK0

    None.

Critical Paths under _main in BANK1

    None.

Critical Paths under _main in BANK2

    None.

Critical Paths under _main in BANK3

    None.

Critical Paths under _main in BANK4

    None.

Critical Paths under _main in BANK5

    None.

Critical Paths under _main in BANK6

    None.

Critical Paths under _main in BANK7

    None.

Call Graph Tables:

 ---------------------------------------------------------------------------------
 (Depth) Function   	        Calls       Base Space   Used Autos Params    Refs
 ---------------------------------------------------------------------------------
 (0) _main                                                 0     0      0    6401
                         _carroAtras
                       _carroAvanzar
                         _carroGirar
                         _carroMatar
                        _configBoard
                         _wait_in_ms
 ---------------------------------------------------------------------------------
 (1) _wait_in_ms                                          10     8      2    6371
                                             42 COMRAM    10     8      2
                           ___awtoft
                            ___ftdiv
                            ___fttol
 ---------------------------------------------------------------------------------
 (2) ___fttol                                             15    11      4     328
                                             27 COMRAM    15    11      4
                           ___awtoft (ARG)
                            ___ftdiv (ARG)
 ---------------------------------------------------------------------------------
 (2) ___ftdiv                                             15     9      6    2946
                                             12 COMRAM    15     9      6
                           ___awtoft (ARG)
                           ___ftpack
 ---------------------------------------------------------------------------------
 (2) ___awtoft                                             4     1      3    2555
                                              8 COMRAM     4     1      3
                           ___ftpack
 ---------------------------------------------------------------------------------
 (3) ___ftpack                                             8     3      5    2388
                                              0 COMRAM     8     3      5
 ---------------------------------------------------------------------------------
 (1) _configBoard                                          0     0      0       0
 ---------------------------------------------------------------------------------
 (1) _carroMatar                                           0     0      0       0
 ---------------------------------------------------------------------------------
 (1) _carroGirar                                           1     1      0      30
                                              0 COMRAM     1     1      0
 ---------------------------------------------------------------------------------
 (1) _carroAvanzar                                         0     0      0       0
 ---------------------------------------------------------------------------------
 (1) _carroAtras                                           0     0      0       0
 ---------------------------------------------------------------------------------
 Estimated maximum stack depth 3
 ---------------------------------------------------------------------------------

 Call Graph Graphs:

 _main (ROOT)
   _carroAtras
   _carroAvanzar
   _carroGirar
   _carroMatar
   _configBoard
   _wait_in_ms
     ___awtoft
       ___ftpack
     ___ftdiv
       ___awtoft (ARG)
         ___ftpack
       ___ftpack (ARG)
     ___fttol
       ___awtoft (ARG)
         ___ftpack
       ___ftdiv (ARG)
         ___awtoft (ARG)
           ___ftpack
         ___ftpack (ARG)

 Address spaces:
Name               Size   Autos  Total    Cost      Usage
BITCOMRAM           5F      0       0       0        0.0%
EEDATA             100      0       0       0        0.0%
NULL                 0      0       0       0        0.0%
CODE                 0      0       0       0        0.0%
COMRAM              5F     34      34       1       54.7%
STACK                0      0       0       2        0.0%
DATA                 0      0       0       3        0.0%
BITBANK0            A0      0       0       4        0.0%
BANK0               A0      0       0       5        0.0%
BITBANK1           100      0       0       6        0.0%
BANK1              100      0       0       7        0.0%
BITBANK2           100      0       0       8        0.0%
BANK2              100      0       0       9        0.0%
BITBANK3           100      0       0      10        0.0%
BANK3              100      0       0      11        0.0%
BITBANK4           100      0       0      12        0.0%
BANK4              100      0       0      13        0.0%
BITBANK5           100      0       0      14        0.0%
BANK5              100      0       0      15        0.0%
BITBANK6           100      0       0      16        0.0%
BANK6              100      0       0      17        0.0%
BITBANK7           100      0       0      18        0.0%
BANK7              100      0       0      19        0.0%
ABS                  0      0       0      20        0.0%
BIGRAM             7FF      0       0      21        0.0%
BITSFR               0      0       0     200        0.0%
SFR                  0      0       0     200        0.0%


Microchip Technology PIC18 Macro Assembler V1.45 build -152302408 
Symbol Table                                                                                   Sat Apr 21 20:17:51 2018

                     l27 7C56                       l39 7B98                       l90 7E18  
                     l86 7DD8                       l89 7E10              __CFG_BORV$3 000000  
                    l320 7D26                      l313 7CD4                      l314 7CCA  
                    l316 7D08                      l317 7CF2                      l421 7FD2  
                    l413 7F38                      l422 7FC6                      l319 7D30  
                    l415 7FAE                      l424 7FEE                      l416 7F9E  
                    l380 7EB4                      l381 7EDA                      l294 7BBE  
                    l377 7E4E                      l379 7E76                      u320 7CBC  
                    u411 7E5E                      u510 7FD8                      u360 7D3A  
                    u451 7F1C                      u470 7F56                      u391 7E36  
                    u535 7D86                      u560 7E06                      u475 7F4E  
                    wreg 000FE8             __CFG_LVP$OFF 000000             ___ftdiv@cntr 0016  
           ___ftdiv@sign 001B             __CFG_WDT$OFF 000000                     l1118 7E18  
                   _RCIF 007CF5                     _main 7C42             ___ftpack@arg 0001  
           ___ftpack@exp 0004     __end_of_carroAvanzar 7B7C                     start 0000  
          __CFG_MCLRE$ON 000000             ___param_bank 000000             ___fttol@exp1 002A  
           ___fttol@lval 0026            __CFG_PLLDIV$2 000000                    ?_main 0001  
        __end_of___ftdiv 7F0C          __end_of___fttol 8000                    _TMR0L 000FD6  
                  _PORTA 000F80                    _TRISD 000F95           __CFG_FCMEN$OFF 000000  
          ___awtoft@sign 000C            ___ftpack@sign 0005                    status 000FD8  
        __initialization 7B62             __end_of_main 7CAC                   ??_main 0035  
          ___fttol@sign1 0025            __activetblptr 000000                   _ADCON0 000FC2  
                 _T08BIT 007EAE         __end_of___awtoft 7BE2         __end_of___ftpack 7D5A  
                 _TMR0IF 007F92                   _TMR0ON 007EAF     __size_of_configBoard 0060  
              ??___ftdiv 0013                ??___fttol 0020    __size_of_carroAvanzar 000A  
             __accesstop 0060  __end_of__initialization 7B62            ___rparam_used 000001  
             ___ftdiv@f1 000D               ___ftdiv@f2 0010               ___ftdiv@f3 0017  
             ___awtoft@c 0009               ___fttol@f1 001C           __pcstackCOMRAM 0001  
           _carroAvanzar 7B72               _carroAtras 7B68               _carroGirar 7B86  
             _carroMatar 7B7C                ?___awtoft 0009                ?___ftpack 0001  
                __Hparam 0000                  __Lparam 0000                  ___ftdiv 7E26  
                ___fttol 7F0C                  __pcinit 7B62               ??___awtoft 000C  
             ??___ftpack 0006                  __ramtop 0800                  __ptext0 7C42  
                __ptext1 7D5A                  __ptext2 7F0C                  __ptext3 7E26  
                __ptext4 7BAA                  __ptext5 7CAC                  __ptext6 7BE2  
                __ptext7 7B7C                  __ptext8 7B86                  __ptext9 7B72  
              _T0CONbits 000FD5     end_of_initialization 7B62     wait_in_ms@time_in_ms 002B  
            ?_carroAtras 0001              ?_carroGirar 0001              ?_carroMatar 0001  
             _wait_in_ms 7D5A                _PORTAbits 000F80                _PORTEbits 000F84  
              _TRISAbits 000F92                _TRISEbits 000F96              ___ftdiv@exp 001A  
          ??_configBoard 0001      __size_of_carroAtras 000A      __size_of_carroGirar 0024  
    __size_of_carroMatar 000A      start_initialization 7B62          wait_in_ms@count 0031  
     wait_in_ms@count_ms 0033      __end_of_configBoard 7C42              ?_wait_in_ms 002B  
      __size_of___awtoft 0038        __size_of___ftpack 00AE                 ?___ftdiv 000D  
               ?___fttol 001C      __size_of_wait_in_ms 00CC             ??_carroAtras 0001  
           ??_carroGirar 0001             ??_carroMatar 0001              _configBoard 7BE2  
               _PIE1bits 000F9D                 _PIR1bits 000F9E               _ADCON0bits 000FC2  
             _ADCON1bits 000FC1               _ADCON2bits 000FC0       __end_of_carroAtras 7B72  
     __end_of_carroGirar 7BAA       __end_of_carroMatar 7B86           wait_in_ms@flag 002F  
               __Hrparam 0000                 __Lrparam 0000      carroGirar@direccion 0001  
       __size_of___ftdiv 00E6         __size_of___fttol 00F4                 ___awtoft 7BAA  
               ___ftpack 7CAC            ?_carroAvanzar 0001                 __ptext10 7B68  
          __size_of_main 006A             ??_wait_in_ms 002D    __CFG_CPUDIV$OSC4_PLL6 000000  
         ??_carroAvanzar 0001               _INTCONbits 000FF2       __end_of_wait_in_ms 7E26  
     __CFG_FOSC$HSPLL_HS 000000             ?_configBoard 0001  
